; ModuleID = 'source-C-CXX/24/116.cpp'
source_filename = "source-C-CXX/24/116.cpp"
target datalayout = "e-m:e-p270:32:32-p271:32:32-p272:64:64-i64:64-f80:128-n8:16:32:64-S128"
target triple = "x86_64-pc-linux-gnu"

%"class.std::ios_base::Init" = type { i8 }
%"class.std::basic_istream" = type { i32 (...)**, i64, %"class.std::basic_ios" }
%"class.std::basic_ios" = type { %"class.std::ios_base", %"class.std::basic_ostream"*, i8, i8, %"class.std::basic_streambuf"*, %"class.std::ctype"*, %"class.std::num_put"*, %"class.std::num_get"* }
%"class.std::ios_base" = type { i32 (...)**, i64, i64, i32, i32, i32, %"struct.std::ios_base::_Callback_list"*, %"struct.std::ios_base::_Words", [8 x %"struct.std::ios_base::_Words"], i32, %"struct.std::ios_base::_Words"*, %"class.std::locale" }
%"struct.std::ios_base::_Callback_list" = type { %"struct.std::ios_base::_Callback_list"*, void (i32, %"class.std::ios_base"*, i32)*, i32, i32 }
%"struct.std::ios_base::_Words" = type { i8*, i64 }
%"class.std::locale" = type { %"class.std::locale::_Impl"* }
%"class.std::locale::_Impl" = type { i32, %"class.std::locale::facet"**, i64, %"class.std::locale::facet"**, i8** }
%"class.std::locale::facet" = type <{ i32 (...)**, i32, [4 x i8] }>
%"class.std::basic_ostream" = type { i32 (...)**, %"class.std::basic_ios" }
%"class.std::basic_streambuf" = type { i32 (...)**, i8*, i8*, i8*, i8*, i8*, i8*, %"class.std::locale" }
%"class.std::ctype" = type <{ %"class.std::locale::facet.base", [4 x i8], %struct.__locale_struct*, i8, [7 x i8], i32*, i32*, i16*, i8, [256 x i8], [256 x i8], i8, [6 x i8] }>
%"class.std::locale::facet.base" = type <{ i32 (...)**, i32 }>
%struct.__locale_struct = type { [13 x %struct.__locale_data*], i16*, i32*, i32*, [13 x i8*] }
%struct.__locale_data = type opaque
%"class.std::num_put" = type { %"class.std::locale::facet.base", [4 x i8] }
%"class.std::num_get" = type { %"class.std::locale::facet.base", [4 x i8] }

@_ZStL8__ioinit = internal global %"class.std::ios_base::Init" zeroinitializer, align 1
@__dso_handle = external hidden global i8
@_ZSt3cin = external global %"class.std::basic_istream", align 8
@_ZSt4cout = external global %"class.std::basic_ostream", align 8
@llvm.global_ctors = appending global [1 x { i32, void ()*, i8* }] [{ i32, void ()*, i8* } { i32 65535, void ()* @_GLOBAL__sub_I_116.cpp, i8* null }]

declare void @_ZNSt8ios_base4InitC1Ev(%"class.std::ios_base::Init"* nonnull align 1 dereferenceable(1)) unnamed_addr #0

; Function Attrs: nounwind
declare void @_ZNSt8ios_base4InitD1Ev(%"class.std::ios_base::Init"* nonnull align 1 dereferenceable(1)) unnamed_addr #1

; Function Attrs: nofree nounwind
declare i32 @__cxa_atexit(void (i8*)*, i8*, i8*) local_unnamed_addr #2

; Function Attrs: mustprogress norecurse sspstrong uwtable
define dso_local i32 @main() local_unnamed_addr #3 {
  %1 = alloca i32, align 4
  %2 = alloca [5000 x i32], align 16
  %3 = bitcast i32* %1 to i8*
  call void @llvm.lifetime.start.p0i8(i64 4, i8* nonnull %3) #9
  %4 = bitcast [5000 x i32]* %2 to i8*
  call void @llvm.lifetime.start.p0i8(i64 20000, i8* nonnull %4) #9
  %5 = getelementptr inbounds [5000 x i32], [5000 x i32]* %2, i64 0, i64 0
  call void @llvm.memset.p0i8.i64(i8* noundef nonnull align 16 dereferenceable(20000) %4, i8 0, i64 20000, i1 false)
  %6 = call nonnull align 8 dereferenceable(16) %"class.std::basic_istream"* @_ZNSirsERi(%"class.std::basic_istream"* nonnull align 8 dereferenceable(16) @_ZSt3cin, i32* nonnull align 4 dereferenceable(4) %1)
  store i32 1, i32* %5, align 16, !tbaa !5
  %7 = load i32, i32* %1, align 4, !tbaa !5
  %8 = icmp slt i32 %7, 1
  br i1 %8, label %69, label %9

9:                                                ; preds = %0, %97
  %10 = phi i32 [ %103, %97 ], [ 1, %0 ]
  %11 = phi i32 [ %104, %97 ], [ 1, %0 ]
  %12 = call i32 @llvm.umax.i32(i32 %10, i32 1)
  %13 = zext i32 %12 to i64
  %14 = icmp ult i32 %12, 8
  br i1 %14, label %67, label %15

15:                                               ; preds = %9
  %16 = and i64 %13, 2147483640
  %17 = add nsw i64 %16, -8
  %18 = lshr exact i64 %17, 3
  %19 = add nuw nsw i64 %18, 1
  %20 = and i64 %19, 1
  %21 = icmp eq i64 %17, 0
  br i1 %21, label %51, label %22

22:                                               ; preds = %15
  %23 = and i64 %19, 4611686018427387902
  br label %24

24:                                               ; preds = %24, %22
  %25 = phi i64 [ 0, %22 ], [ %48, %24 ]
  %26 = phi i64 [ %23, %22 ], [ %49, %24 ]
  %27 = getelementptr inbounds [5000 x i32], [5000 x i32]* %2, i64 0, i64 %25
  %28 = bitcast i32* %27 to <4 x i32>*
  %29 = load <4 x i32>, <4 x i32>* %28, align 16, !tbaa !5
  %30 = getelementptr inbounds i32, i32* %27, i64 4
  %31 = bitcast i32* %30 to <4 x i32>*
  %32 = load <4 x i32>, <4 x i32>* %31, align 16, !tbaa !5
  %33 = shl nsw <4 x i32> %29, <i32 1, i32 1, i32 1, i32 1>
  %34 = shl nsw <4 x i32> %32, <i32 1, i32 1, i32 1, i32 1>
  %35 = bitcast i32* %27 to <4 x i32>*
  store <4 x i32> %33, <4 x i32>* %35, align 16, !tbaa !5
  %36 = bitcast i32* %30 to <4 x i32>*
  store <4 x i32> %34, <4 x i32>* %36, align 16, !tbaa !5
  %37 = or i64 %25, 8
  %38 = getelementptr inbounds [5000 x i32], [5000 x i32]* %2, i64 0, i64 %37
  %39 = bitcast i32* %38 to <4 x i32>*
  %40 = load <4 x i32>, <4 x i32>* %39, align 16, !tbaa !5
  %41 = getelementptr inbounds i32, i32* %38, i64 4
  %42 = bitcast i32* %41 to <4 x i32>*
  %43 = load <4 x i32>, <4 x i32>* %42, align 16, !tbaa !5
  %44 = shl nsw <4 x i32> %40, <i32 1, i32 1, i32 1, i32 1>
  %45 = shl nsw <4 x i32> %43, <i32 1, i32 1, i32 1, i32 1>
  %46 = bitcast i32* %38 to <4 x i32>*
  store <4 x i32> %44, <4 x i32>* %46, align 16, !tbaa !5
  %47 = bitcast i32* %41 to <4 x i32>*
  store <4 x i32> %45, <4 x i32>* %47, align 16, !tbaa !5
  %48 = add nuw i64 %25, 16
  %49 = add i64 %26, -2
  %50 = icmp eq i64 %49, 0
  br i1 %50, label %51, label %24, !llvm.loop !9

51:                                               ; preds = %24, %15
  %52 = phi i64 [ 0, %15 ], [ %48, %24 ]
  %53 = icmp eq i64 %20, 0
  br i1 %53, label %65, label %54

54:                                               ; preds = %51
  %55 = getelementptr inbounds [5000 x i32], [5000 x i32]* %2, i64 0, i64 %52
  %56 = bitcast i32* %55 to <4 x i32>*
  %57 = load <4 x i32>, <4 x i32>* %56, align 16, !tbaa !5
  %58 = getelementptr inbounds i32, i32* %55, i64 4
  %59 = bitcast i32* %58 to <4 x i32>*
  %60 = load <4 x i32>, <4 x i32>* %59, align 16, !tbaa !5
  %61 = shl nsw <4 x i32> %57, <i32 1, i32 1, i32 1, i32 1>
  %62 = shl nsw <4 x i32> %60, <i32 1, i32 1, i32 1, i32 1>
  %63 = bitcast i32* %55 to <4 x i32>*
  store <4 x i32> %61, <4 x i32>* %63, align 16, !tbaa !5
  %64 = bitcast i32* %58 to <4 x i32>*
  store <4 x i32> %62, <4 x i32>* %64, align 16, !tbaa !5
  br label %65

65:                                               ; preds = %51, %54
  %66 = icmp eq i64 %16, %13
  br i1 %66, label %79, label %67

67:                                               ; preds = %9, %65
  %68 = phi i64 [ 0, %9 ], [ %16, %65 ]
  br label %72

69:                                               ; preds = %97, %0
  %70 = phi i32 [ 1, %0 ], [ %103, %97 ]
  %71 = zext i32 %70 to i64
  br label %106

72:                                               ; preds = %67, %72
  %73 = phi i64 [ %77, %72 ], [ %68, %67 ]
  %74 = getelementptr inbounds [5000 x i32], [5000 x i32]* %2, i64 0, i64 %73
  %75 = load i32, i32* %74, align 4, !tbaa !5
  %76 = shl nsw i32 %75, 1
  store i32 %76, i32* %74, align 4, !tbaa !5
  %77 = add nuw nsw i64 %73, 1
  %78 = icmp eq i64 %77, %13
  br i1 %78, label %79, label %72, !llvm.loop !12

79:                                               ; preds = %72, %65
  br label %80

80:                                               ; preds = %79, %94
  %81 = phi i64 [ %95, %94 ], [ 0, %79 ]
  %82 = getelementptr inbounds [5000 x i32], [5000 x i32]* %2, i64 0, i64 %81
  %83 = load i32, i32* %82, align 4, !tbaa !5
  %84 = icmp sgt i32 %83, 9
  br i1 %84, label %87, label %85

85:                                               ; preds = %80
  %86 = add nuw nsw i64 %81, 1
  br label %94

87:                                               ; preds = %80
  %88 = udiv i32 %83, 10
  %89 = add nuw nsw i64 %81, 1
  %90 = getelementptr inbounds [5000 x i32], [5000 x i32]* %2, i64 0, i64 %89
  %91 = load i32, i32* %90, align 4, !tbaa !5
  %92 = add nsw i32 %91, %88
  store i32 %92, i32* %90, align 4, !tbaa !5
  %93 = urem i32 %83, 10
  store i32 %93, i32* %82, align 4, !tbaa !5
  br label %94

94:                                               ; preds = %85, %87
  %95 = phi i64 [ %86, %85 ], [ %89, %87 ]
  %96 = icmp eq i64 %95, %13
  br i1 %96, label %97, label %80, !llvm.loop !14

97:                                               ; preds = %94
  %98 = zext i32 %10 to i64
  %99 = getelementptr inbounds [5000 x i32], [5000 x i32]* %2, i64 0, i64 %98
  %100 = load i32, i32* %99, align 4, !tbaa !5
  %101 = icmp ne i32 %100, 0
  %102 = zext i1 %101 to i32
  %103 = add nuw nsw i32 %10, %102
  %104 = add nuw i32 %11, 1
  %105 = icmp eq i32 %11, %7
  br i1 %105, label %69, label %9, !llvm.loop !15

106:                                              ; preds = %69, %106
  %107 = phi i64 [ %71, %69 ], [ %116, %106 ]
  %108 = phi i32 [ %70, %69 ], [ %109, %106 ]
  %109 = add nsw i32 %108, -1
  %110 = zext i32 %109 to i64
  %111 = getelementptr inbounds [5000 x i32], [5000 x i32]* %2, i64 0, i64 %110
  %112 = load i32, i32* %111, align 4, !tbaa !5
  %113 = call nonnull align 8 dereferenceable(8) %"class.std::basic_ostream"* @_ZNSolsEi(%"class.std::basic_ostream"* nonnull align 8 dereferenceable(8) @_ZSt4cout, i32 %112)
  %114 = trunc i64 %107 to i32
  %115 = icmp sgt i32 %114, 1
  %116 = add nsw i64 %107, -1
  br i1 %115, label %106, label %117, !llvm.loop !16

117:                                              ; preds = %106
  %118 = load i8*, i8** bitcast (%"class.std::basic_ostream"* @_ZSt4cout to i8**), align 8, !tbaa !17
  %119 = getelementptr i8, i8* %118, i64 -24
  %120 = bitcast i8* %119 to i64*
  %121 = load i64, i64* %120, align 8
  %122 = add nsw i64 %121, 240
  %123 = getelementptr inbounds i8, i8* bitcast (%"class.std::basic_ostream"* @_ZSt4cout to i8*), i64 %122
  %124 = bitcast i8* %123 to %"class.std::ctype"**
  %125 = load %"class.std::ctype"*, %"class.std::ctype"** %124, align 8, !tbaa !19
  %126 = icmp eq %"class.std::ctype"* %125, null
  br i1 %126, label %127, label %128

127:                                              ; preds = %117
  call void @_ZSt16__throw_bad_castv() #10
  unreachable

128:                                              ; preds = %117
  %129 = getelementptr inbounds %"class.std::ctype", %"class.std::ctype"* %125, i64 0, i32 8
  %130 = load i8, i8* %129, align 8, !tbaa !23
  %131 = icmp eq i8 %130, 0
  br i1 %131, label %135, label %132

132:                                              ; preds = %128
  %133 = getelementptr inbounds %"class.std::ctype", %"class.std::ctype"* %125, i64 0, i32 9, i64 10
  %134 = load i8, i8* %133, align 1, !tbaa !25
  br label %141

135:                                              ; preds = %128
  call void @_ZNKSt5ctypeIcE13_M_widen_initEv(%"class.std::ctype"* nonnull align 8 dereferenceable(570) %125)
  %136 = bitcast %"class.std::ctype"* %125 to i8 (%"class.std::ctype"*, i8)***
  %137 = load i8 (%"class.std::ctype"*, i8)**, i8 (%"class.std::ctype"*, i8)*** %136, align 8, !tbaa !17
  %138 = getelementptr inbounds i8 (%"class.std::ctype"*, i8)*, i8 (%"class.std::ctype"*, i8)** %137, i64 6
  %139 = load i8 (%"class.std::ctype"*, i8)*, i8 (%"class.std::ctype"*, i8)** %138, align 8
  %140 = call signext i8 %139(%"class.std::ctype"* nonnull align 8 dereferenceable(570) %125, i8 signext 10)
  br label %141

141:                                              ; preds = %132, %135
  %142 = phi i8 [ %134, %132 ], [ %140, %135 ]
  %143 = call nonnull align 8 dereferenceable(8) %"class.std::basic_ostream"* @_ZNSo3putEc(%"class.std::basic_ostream"* nonnull align 8 dereferenceable(8) @_ZSt4cout, i8 signext %142)
  %144 = call nonnull align 8 dereferenceable(8) %"class.std::basic_ostream"* @_ZNSo5flushEv(%"class.std::basic_ostream"* nonnull align 8 dereferenceable(8) %143)
  call void @llvm.lifetime.end.p0i8(i64 20000, i8* nonnull %4) #9
  call void @llvm.lifetime.end.p0i8(i64 4, i8* nonnull %3) #9
  ret i32 0
}

; Function Attrs: argmemonly mustprogress nofree nosync nounwind willreturn
declare void @llvm.lifetime.start.p0i8(i64 immarg, i8* nocapture) #4

; Function Attrs: argmemonly mustprogress nofree nounwind willreturn writeonly
declare void @llvm.memset.p0i8.i64(i8* nocapture writeonly, i8, i64, i1 immarg) #5

declare nonnull align 8 dereferenceable(16) %"class.std::basic_istream"* @_ZNSirsERi(%"class.std::basic_istream"* nonnull align 8 dereferenceable(16), i32* nonnull align 4 dereferenceable(4)) local_unnamed_addr #0

declare nonnull align 8 dereferenceable(8) %"class.std::basic_ostream"* @_ZNSolsEi(%"class.std::basic_ostream"* nonnull align 8 dereferenceable(8), i32) local_unnamed_addr #0

; Function Attrs: argmemonly mustprogress nofree nosync nounwind willreturn
declare void @llvm.lifetime.end.p0i8(i64 immarg, i8* nocapture) #4

declare nonnull align 8 dereferenceable(8) %"class.std::basic_ostream"* @_ZNSo3putEc(%"class.std::basic_ostream"* nonnull align 8 dereferenceable(8), i8 signext) local_unnamed_addr #0

declare nonnull align 8 dereferenceable(8) %"class.std::basic_ostream"* @_ZNSo5flushEv(%"class.std::basic_ostream"* nonnull align 8 dereferenceable(8)) local_unnamed_addr #0

; Function Attrs: noreturn
declare void @_ZSt16__throw_bad_castv() local_unnamed_addr #6

declare void @_ZNKSt5ctypeIcE13_M_widen_initEv(%"class.std::ctype"* nonnull align 8 dereferenceable(570)) local_unnamed_addr #0

; Function Attrs: sspstrong uwtable
define internal void @_GLOBAL__sub_I_116.cpp() #7 section ".text.startup" {
  tail call void @_ZNSt8ios_base4InitC1Ev(%"class.std::ios_base::Init"* nonnull align 1 dereferenceable(1) @_ZStL8__ioinit)
  %1 = tail call i32 @__cxa_atexit(void (i8*)* bitcast (void (%"class.std::ios_base::Init"*)* @_ZNSt8ios_base4InitD1Ev to void (i8*)*), i8* getelementptr inbounds (%"class.std::ios_base::Init", %"class.std::ios_base::Init"* @_ZStL8__ioinit, i64 0, i32 0), i8* nonnull @__dso_handle) #9
  ret void
}

; Function Attrs: nofree nosync nounwind readnone speculatable willreturn
declare i32 @llvm.umax.i32(i32, i32) #8


!llvm.module.flags = !{!0, !1, !2, !3}
!llvm.ident = !{!4}

!0 = !{i32 1, !"wchar_size", i32 4}
!1 = !{i32 7, !"PIC Level", i32 2}
!2 = !{i32 7, !"PIE Level", i32 2}
!3 = !{i32 7, !"uwtable", i32 1}
!4 = !{!"clang version 13.0.0"}
!5 = !{!6, !6, i64 0}
!6 = !{!"int", !7, i64 0}
!7 = !{!"omnipotent char", !8, i64 0}
!8 = !{!"Simple C++ TBAA"}
!9 = distinct !{!9, !10, !11}
!10 = !{!"llvm.loop.mustprogress"}
!11 = !{!"llvm.loop.isvectorized", i32 1}
!12 = distinct !{!12, !10, !13, !11}
!13 = !{!"llvm.loop.unroll.runtime.disable"}
!14 = distinct !{!14, !10}
!15 = distinct !{!15, !10}
!16 = distinct !{!16, !10}
!17 = !{!18, !18, i64 0}
!18 = !{!"vtable pointer", !8, i64 0}
!19 = !{!20, !21, i64 240}
!20 = !{!"_ZTSSt9basic_iosIcSt11char_traitsIcEE", !21, i64 216, !7, i64 224, !22, i64 225, !21, i64 232, !21, i64 240, !21, i64 248, !21, i64 256}
!21 = !{!"any pointer", !7, i64 0}
!22 = !{!"bool", !7, i64 0}
!23 = !{!24, !7, i64 56}
!24 = !{!"_ZTSSt5ctypeIcE", !21, i64 16, !22, i64 24, !21, i64 32, !21, i64 40, !21, i64 48, !7, i64 56, !7, i64 57, !7, i64 313, !7, i64 569}
!25 = !{!7, !7, i64 0}
